; Function Attrs: mustprogress uwtable
define void @_ZN5boost4urls13segments_viewC2ENS_4core17basic_string_viewIcEE(ptr nocapture noundef nonnull writeonly align 8 dereferenceable(40) %0, ptr %1, i64 %2) unnamed_addr #3 align 2 {
  %4 = alloca %"class.boost::urls::segments_view", align 8
  %5 = alloca %"class.boost::urls::segments_encoded_view", align 8
  %6 = alloca %"class.boost::system::result", align 8
  %7 = alloca %"struct.boost::source_location", align 8
  call void @llvm.lifetime.start.p0(i64 40, ptr nonnull %4) #16
  call void @llvm.lifetime.start.p0(i64 40, ptr nonnull %5) #16
  call void @llvm.lifetime.start.p0(i64 48, ptr nonnull %6) #16
  call void @_ZN5boost4urls10parse_pathENS_4core17basic_string_viewIcEE(ptr dead_on_unwind nonnull writable sret(%"class.boost::system::result") align 8 %6, ptr %1, i64 %2) #16
  call void @llvm.lifetime.start.p0(i64 24, ptr nonnull %7) #16
  store ptr @.str, ptr %7, align 8, !tbaa !3
  %8 = getelementptr inbounds nuw i8, ptr %7, i64 8
  store ptr @.str.1, ptr %8, align 8, !tbaa !9
  %9 = getelementptr inbounds nuw i8, ptr %7, i64 16
  store i32 31, ptr %9, align 8, !tbaa !10
  %10 = getelementptr inbounds nuw i8, ptr %7, i64 20
  store i32 13, ptr %10, align 4, !tbaa !11
  %11 = getelementptr inbounds nuw i8, ptr %6, i64 40
  %12 = load i32, ptr %11, align 8, !tbaa !12, !noalias !14
  %13 = icmp eq i32 %12, 1
  br i1 %13, label %_ZNO5boost6system6resultINS_4urls21segments_encoded_viewENS0_10error_codeEE5valueIS3_EENSt9enable_ifIXsr3std21is_move_constructibleIT_EE5valueES3_E4typeERKNS_15source_locationE.exit, label %14

14:                                               ; preds = %3
  call void @_ZN5boost6system26throw_exception_from_errorERKNS0_10error_codeERKNS_15source_locationE(ptr noundef nonnull align 8 dereferenceable(48) %6, ptr noundef nonnull align 8 dereferenceable(24) %7) #17, !noalias !14
  unreachable

_ZNO5boost6system6resultINS_4urls21segments_encoded_viewENS0_10error_codeEE5valueIS3_EENSt9enable_ifIXsr3std21is_move_constructibleIT_EE5valueES3_E4typeERKNS_15source_locationE.exit: ; preds = %3
  call void @llvm.memcpy.p0.p0.i64(ptr noundef nonnull align 8 dereferenceable(40) %5, ptr noundef nonnull align 8 dereferenceable(48) %6, i64 40, i1 false)
  call void @_ZNK5boost4urls21segments_encoded_viewcvNS0_13segments_viewEEv(ptr dead_on_unwind nonnull writable sret(%"class.boost::urls::segments_view") align 8 %4, ptr noundef nonnull align 8 dereferenceable(40) %5) #16
  call void @llvm.memcpy.p0.p0.i64(ptr noundef nonnull align 8 dereferenceable(40) %0, ptr noundef nonnull align 8 dereferenceable(40) %4, i64 40, i1 false)
  call void @llvm.lifetime.end.p0(i64 24, ptr nonnull %7) #16
  call void @llvm.lifetime.end.p0(i64 48, ptr nonnull %6) #16
  call void @llvm.lifetime.end.p0(i64 40, ptr nonnull %5) #16
  call void @llvm.lifetime.end.p0(i64 40, ptr nonnull %4) #16
  ret void
}